target datalayout = "e-m:e-p270:32:32-p271:32:32-p272:64:64-i64:64-i128:128-f80:128-n8:16:32:64-S128"
target triple = "x86_64-pc-linux-gnu"

; Function Attrs: nounwind uwtable
define internal i32 @uv__utf8_decode1_slow(ptr noundef %0, ptr noundef %1, i32 noundef %2) #0 {
  %4 = alloca i32, align 4
  %5 = alloca ptr, align 8
  %6 = alloca ptr, align 8
  %7 = alloca i32, align 4
  %8 = alloca i32, align 4
  %9 = alloca i32, align 4
  %10 = alloca i32, align 4
  %11 = alloca i32, align 4
  %12 = alloca i32, align 4
  store ptr %0, ptr %5, align 8
  store ptr %1, ptr %6, align 8
  store i32 %2, ptr %7, align 4
  call void @llvm.lifetime.start.p0(i64 4, ptr %8) #3
  call void @llvm.lifetime.start.p0(i64 4, ptr %9) #3
  call void @llvm.lifetime.start.p0(i64 4, ptr %10) #3
  call void @llvm.lifetime.start.p0(i64 4, ptr %11) #3
  %13 = load i32, ptr %7, align 4
  %14 = icmp ugt i32 %13, 247
  br i1 %14, label %15, label %16

15:                                               ; preds = %3
  store i32 -1, ptr %4, align 4
  store i32 1, ptr %12, align 4
  br label %120

16:                                               ; preds = %3
  %17 = load ptr, ptr %6, align 8
  %18 = load ptr, ptr %5, align 8
  %19 = load ptr, ptr %18, align 8
  %20 = ptrtoint ptr %17 to i64
  %21 = ptrtoint ptr %19 to i64
  %22 = sub i64 %20, %21
  switch i64 %22, label %23 [
    i64 2, label %45
    i64 1, label %63
    i64 0, label %76
  ]

23:                                               ; preds = %16
  %24 = load i32, ptr %7, align 4
  %25 = icmp ugt i32 %24, 239
  br i1 %25, label %26, label %44

26:                                               ; preds = %23
  store i32 65536, ptr %11, align 4
  %27 = load i32, ptr %7, align 4
  %28 = and i32 %27, 7
  store i32 %28, ptr %7, align 4
  %29 = load ptr, ptr %5, align 8
  %30 = load ptr, ptr %29, align 8
  %31 = getelementptr inbounds nuw i8, ptr %30, i32 1
  store ptr %31, ptr %29, align 8
  %32 = load i8, ptr %30, align 1
  %33 = zext i8 %32 to i32
  store i32 %33, ptr %8, align 4
  %34 = load ptr, ptr %5, align 8
  %35 = load ptr, ptr %34, align 8
  %36 = getelementptr inbounds nuw i8, ptr %35, i32 1
  store ptr %36, ptr %34, align 8
  %37 = load i8, ptr %35, align 1
  %38 = zext i8 %37 to i32
  store i32 %38, ptr %9, align 4
  %39 = load ptr, ptr %5, align 8
  %40 = load ptr, ptr %39, align 8
  %41 = getelementptr inbounds nuw i8, ptr %40, i32 1
  store ptr %41, ptr %39, align 8
  %42 = load i8, ptr %40, align 1
  %43 = zext i8 %42 to i32
  store i32 %43, ptr %10, align 4
  br label %77

44:                                               ; preds = %23
  br label %45

45:                                               ; preds = %16, %44
  %46 = load i32, ptr %7, align 4
  %47 = icmp ugt i32 %46, 223
  br i1 %47, label %48, label %62

48:                                               ; preds = %45
  store i32 2048, ptr %11, align 4
  %49 = load i32, ptr %7, align 4
  %50 = and i32 %49, 15
  %51 = or i32 128, %50
  store i32 %51, ptr %8, align 4
  %52 = load ptr, ptr %5, align 8
  %53 = load ptr, ptr %52, align 8
  %54 = getelementptr inbounds nuw i8, ptr %53, i32 1
  store ptr %54, ptr %52, align 8
  %55 = load i8, ptr %53, align 1
  %56 = zext i8 %55 to i32
  store i32 %56, ptr %9, align 4
  %57 = load ptr, ptr %5, align 8
  %58 = load ptr, ptr %57, align 8
  %59 = getelementptr inbounds nuw i8, ptr %58, i32 1
  store ptr %59, ptr %57, align 8
  %60 = load i8, ptr %58, align 1
  %61 = zext i8 %60 to i32
  store i32 %61, ptr %10, align 4
  store i32 0, ptr %7, align 4
  br label %77

62:                                               ; preds = %45
  br label %63

63:                                               ; preds = %16, %62
  %64 = load i32, ptr %7, align 4
  %65 = icmp ugt i32 %64, 191
  br i1 %65, label %66, label %75

66:                                               ; preds = %63
  store i32 128, ptr %11, align 4
  store i32 128, ptr %8, align 4
  %67 = load i32, ptr %7, align 4
  %68 = and i32 %67, 31
  %69 = or i32 128, %68
  store i32 %69, ptr %9, align 4
  %70 = load ptr, ptr %5, align 8
  %71 = load ptr, ptr %70, align 8
  %72 = getelementptr inbounds nuw i8, ptr %71, i32 1
  store ptr %72, ptr %70, align 8
  %73 = load i8, ptr %71, align 1
  %74 = zext i8 %73 to i32
  store i32 %74, ptr %10, align 4
  store i32 0, ptr %7, align 4
  br label %77

75:                                               ; preds = %63
  br label %76

76:                                               ; preds = %16, %75
  store i32 -1, ptr %4, align 4
  store i32 1, ptr %12, align 4
  br label %120

77:                                               ; preds = %66, %48, %26
  %78 = load i32, ptr %8, align 4
  %79 = load i32, ptr %9, align 4
  %80 = xor i32 %78, %79
  %81 = load i32, ptr %10, align 4
  %82 = xor i32 %80, %81
  %83 = and i32 192, %82
  %84 = icmp ne i32 128, %83
  br i1 %84, label %85, label %86

85:                                               ; preds = %77
  store i32 -1, ptr %4, align 4
  store i32 1, ptr %12, align 4
  br label %120

86:                                               ; preds = %77
  %87 = load i32, ptr %8, align 4
  %88 = and i32 %87, 63
  store i32 %88, ptr %8, align 4
  %89 = load i32, ptr %9, align 4
  %90 = and i32 %89, 63
  store i32 %90, ptr %9, align 4
  %91 = load i32, ptr %10, align 4
  %92 = and i32 %91, 63
  store i32 %92, ptr %10, align 4
  %93 = load i32, ptr %7, align 4
  %94 = shl i32 %93, 18
  %95 = load i32, ptr %8, align 4
  %96 = shl i32 %95, 12
  %97 = or i32 %94, %96
  %98 = load i32, ptr %9, align 4
  %99 = shl i32 %98, 6
  %100 = or i32 %97, %99
  %101 = load i32, ptr %10, align 4
  %102 = or i32 %100, %101
  store i32 %102, ptr %7, align 4
  %103 = load i32, ptr %7, align 4
  %104 = load i32, ptr %11, align 4
  %105 = icmp ult i32 %103, %104
  br i1 %105, label %106, label %107

106:                                              ; preds = %86
  store i32 -1, ptr %4, align 4
  store i32 1, ptr %12, align 4
  br label %120

107:                                              ; preds = %86
  %108 = load i32, ptr %7, align 4
  %109 = icmp ugt i32 %108, 1114111
  br i1 %109, label %110, label %111

110:                                              ; preds = %107
  store i32 -1, ptr %4, align 4
  store i32 1, ptr %12, align 4
  br label %120

111:                                              ; preds = %107
  %112 = load i32, ptr %7, align 4
  %113 = icmp uge i32 %112, 55296
  br i1 %113, label %114, label %118

114:                                              ; preds = %111
  %115 = load i32, ptr %7, align 4
  %116 = icmp ule i32 %115, 57343
  br i1 %116, label %117, label %118

117:                                              ; preds = %114
  store i32 -1, ptr %4, align 4
  store i32 1, ptr %12, align 4
  br label %120

118:                                              ; preds = %114, %111
  %119 = load i32, ptr %7, align 4
  store i32 %119, ptr %4, align 4
  store i32 1, ptr %12, align 4
  br label %120

120:                                              ; preds = %118, %117, %110, %106, %85, %76, %15
  call void @llvm.lifetime.end.p0(i64 4, ptr %11) #3
  call void @llvm.lifetime.end.p0(i64 4, ptr %10) #3
  call void @llvm.lifetime.end.p0(i64 4, ptr %9) #3
  call void @llvm.lifetime.end.p0(i64 4, ptr %8) #3
  %121 = load i32, ptr %4, align 4
  ret i32 %121
}

; Function Attrs: nounwind uwtable
define hidden i32 @uv__utf8_decode1(ptr noundef %0, ptr noundef %1) #0 {
  %3 = alloca i32, align 4
  %4 = alloca ptr, align 8
  %5 = alloca ptr, align 8
  %6 = alloca i32, align 4
  %7 = alloca i32, align 4
  store ptr %0, ptr %4, align 8
  store ptr %1, ptr %5, align 8
  call void @llvm.lifetime.start.p0(i64 4, ptr %6) #3
  %8 = load ptr, ptr %4, align 8
  %9 = load ptr, ptr %8, align 8
  %10 = getelementptr inbounds nuw i8, ptr %9, i32 1
  store ptr %10, ptr %8, align 8
  %11 = load i8, ptr %9, align 1
  %12 = zext i8 %11 to i32
  store i32 %12, ptr %6, align 4
  %13 = load i32, ptr %6, align 4
  %14 = icmp ult i32 %13, 128
  br i1 %14, label %15, label %17

15:                                               ; preds = %2
  %16 = load i32, ptr %6, align 4
  store i32 %16, ptr %3, align 4
  store i32 1, ptr %7, align 4
  br label %22

17:                                               ; preds = %2
  %18 = load ptr, ptr %4, align 8
  %19 = load ptr, ptr %5, align 8
  %20 = load i32, ptr %6, align 4
  %21 = call i32 @uv__utf8_decode1_slow(ptr noundef %18, ptr noundef %19, i32 noundef %20)
  store i32 %21, ptr %3, align 4
  store i32 1, ptr %7, align 4
  br label %22

22:                                               ; preds = %17, %15
  call void @llvm.lifetime.end.p0(i64 4, ptr %6) #3
  %23 = load i32, ptr %3, align 4
  ret i32 %23
}